target datalayout = "e-m:e-p270:32:32-p271:32:32-p272:64:64-i64:64-i128:128-f80:128-n8:16:32:64-S128"
target triple = "x86_64-pc-linux-gnu"

@_ZN4absl13hash_internal15MixingHashState5kSeedE = dso_local constant ptr @_ZN4absl13hash_internal15MixingHashState5kSeedE, align 8
@_ZN4absl13hash_internal15MixingHashState17kStaticRandomDataE = linkonce_odr dso_local constant [5 x i64] [i64 2611923443488327891, i64 1376283091369227076, i64 -6626703657320631856, i64 589684135938649225, i64 4983270260364809079], comdat, align 64

; Function Attrs: alwaysinline mustprogress nounwind uwtable
define linkonce_odr dso_local noundef i64 @_ZN4absl13hash_internal15MixingHashState4SeedEv() #2 comdat align 2 {
  ret i64 ptrtoint (ptr @_ZN4absl13hash_internal15MixingHashState5kSeedE to i64)
}

; Function Attrs: mustprogress uwtable
define dso_local noundef i64 @_ZN4absl13hash_internal15MixingHashState16LowLevelHashImplEPKhm(ptr noundef %0, i64 noundef %1) #0 align 2 {
  %3 = alloca ptr, align 8
  %4 = alloca i64, align 8
  store ptr %0, ptr %3, align 8, !tbaa !8
  store i64 %1, ptr %4, align 8, !tbaa !4
  %5 = load ptr, ptr %3, align 8, !tbaa !8
  %6 = load i64, ptr %4, align 8, !tbaa !4
  %7 = call noundef i64 @_ZN4absl13hash_internal15MixingHashState4SeedEv()
  %8 = call noundef i64 @_ZN4absl13hash_internal19LowLevelHashLenGt16EPKvmmPKm(ptr noundef %5, i64 noundef %6, i64 noundef %7, ptr noundef @_ZN4absl13hash_internal15MixingHashState17kStaticRandomDataE)
  ret i64 %8
}

; Function Attrs: alwaysinline mustprogress nounwind uwtable
define linkonce_odr dso_local noundef i64 @_ZN4absl13hash_internal15MixingHashState3MixEmm(i64 noundef %0, i64 noundef %1) #2 comdat align 2 {
  %3 = alloca i64, align 8
  %4 = alloca i64, align 8
  %5 = alloca i128, align 16
  store i64 %0, ptr %3, align 8, !tbaa !4
  store i64 %1, ptr %4, align 8, !tbaa !4
  call void @llvm.lifetime.start.p0(i64 16, ptr %5) #12
  %6 = load i64, ptr %3, align 8, !tbaa !4
  %7 = zext i64 %6 to i128
  store i128 %7, ptr %5, align 16, !tbaa !13
  %8 = load i64, ptr %4, align 8, !tbaa !4
  %9 = zext i64 %8 to i128
  %10 = load i128, ptr %5, align 16, !tbaa !13
  %11 = mul i128 %10, %9
  store i128 %11, ptr %5, align 16, !tbaa !13
  %12 = load i128, ptr %5, align 16, !tbaa !13
  %13 = load i128, ptr %5, align 16, !tbaa !13
  %14 = lshr i128 %13, 64
  %15 = xor i128 %12, %14
  %16 = trunc i128 %15 to i64
  call void @llvm.lifetime.end.p0(i64 16, ptr %5) #12
  ret i64 %16
}

; Function Attrs: alwaysinline mustprogress uwtable
define linkonce_odr dso_local noundef i64 @_ZN4absl13hash_internal15MixingHashState6Hash64EPKhm(ptr noundef %0, i64 noundef %1) #5 comdat align 2 {
  %3 = alloca ptr, align 8
  %4 = alloca i64, align 8
  store ptr %0, ptr %3, align 8, !tbaa !8
  store i64 %1, ptr %4, align 8, !tbaa !4
  %5 = load ptr, ptr %3, align 8, !tbaa !8
  %6 = load i64, ptr %4, align 8, !tbaa !4
  %7 = call noundef i64 @_ZN4absl13hash_internal15MixingHashState16LowLevelHashImplEPKhm(ptr noundef %5, i64 noundef %6)
  ret i64 %7
}

; Function Attrs: mustprogress nounwind uwtable
define linkonce_odr dso_local noundef i64 @_ZN4absl13hash_internal18PiecewiseChunkSizeEv() #1 comdat {
  ret i64 1024
}

; Function Attrs: mustprogress uwtable
define dso_local noundef i64 @_ZN4absl13hash_internal15MixingHashState28CombineLargeContiguousImpl64EmPKhm(i64 noundef %0, ptr noundef %1, i64 noundef %2) #0 align 2 {
  %4 = alloca i64, align 8
  %5 = alloca ptr, align 8
  %6 = alloca i64, align 8
  store i64 %0, ptr %4, align 8, !tbaa !4
  store ptr %1, ptr %5, align 8, !tbaa !8
  store i64 %2, ptr %6, align 8, !tbaa !4
  br label %7

7:                                                ; preds = %11, %3
  %8 = load i64, ptr %6, align 8, !tbaa !4
  %9 = call noundef i64 @_ZN4absl13hash_internal18PiecewiseChunkSizeEv()
  %10 = icmp uge i64 %8, %9
  br i1 %10, label %11, label %24

11:                                               ; preds = %7
  %12 = load i64, ptr %4, align 8, !tbaa !4
  %13 = load ptr, ptr %5, align 8, !tbaa !8
  %14 = call noundef i64 @_ZN4absl13hash_internal18PiecewiseChunkSizeEv()
  %15 = call noundef i64 @_ZN4absl13hash_internal15MixingHashState6Hash64EPKhm(ptr noundef %13, i64 noundef %14)
  %16 = xor i64 %12, %15
  %17 = call noundef i64 @_ZN4absl13hash_internal15MixingHashState3MixEmm(i64 noundef %16, i64 noundef -2543921745674291987)
  store i64 %17, ptr %4, align 8, !tbaa !4
  %18 = call noundef i64 @_ZN4absl13hash_internal18PiecewiseChunkSizeEv()
  %19 = load i64, ptr %6, align 8, !tbaa !4
  %20 = sub i64 %19, %18
  store i64 %20, ptr %6, align 8, !tbaa !4
  %21 = call noundef i64 @_ZN4absl13hash_internal18PiecewiseChunkSizeEv()
  %22 = load ptr, ptr %5, align 8, !tbaa !8
  %23 = getelementptr inbounds nuw i8, ptr %22, i64 %21
  store ptr %23, ptr %5, align 8, !tbaa !8
  br label %7, !llvm.loop !15

24:                                               ; preds = %7
  %25 = load i64, ptr %4, align 8, !tbaa !4
  %26 = load ptr, ptr %5, align 8, !tbaa !8
  %27 = load i64, ptr %6, align 8, !tbaa !4
  %28 = call noundef i64 @_ZN4absl13hash_internal15MixingHashState21CombineContiguousImplEmPKhmSt17integral_constantIiLi8EE(i64 noundef %25, ptr noundef %26, i64 noundef %27)
  ret i64 %28
}