; Function Attrs: mustprogress uwtable
define dso_local noundef i64 @_ZN4absl13hash_internal15MixingHashState28CombineLargeContiguousImpl64EmPKhm(i64 noundef %0, ptr noundef %1, i64 noundef %2) local_unnamed_addr #0 align 2 {
  %.not9 = icmp ult i64 %2, 1024
  br i1 %.not9, label %._crit_edge, label %.lr.ph

.lr.ph:                                           ; preds = %3, %.lr.ph
  %.012 = phi i64 [ %11, %.lr.ph ], [ %2, %3 ]
  %.0711 = phi ptr [ %12, %.lr.ph ], [ %1, %3 ]
  %.0810 = phi i64 [ %10, %.lr.ph ], [ %0, %3 ]
  %4 = tail call noundef i64 @_ZN4absl13hash_internal19LowLevelHashLenGt16EPKvmmPKm(ptr noundef %.0711, i64 noundef 1024, i64 noundef ptrtoint (ptr @_ZN4absl13hash_internal15MixingHashState5kSeedE to i64), ptr noundef nonnull @_ZN4absl13hash_internal15MixingHashState17kStaticRandomDataE)
  %5 = xor i64 %4, %.0810
  %6 = zext i64 %5 to i128
  %7 = mul nuw i128 %6, 15902822328035259629
  %8 = lshr i128 %7, 64
  %9 = xor i128 %8, %7
  %10 = trunc i128 %9 to i64
  %11 = add i64 %.012, -1024
  %12 = getelementptr inbounds nuw i8, ptr %.0711, i64 1024
  %.not = icmp ult i64 %11, 1024
  br i1 %.not, label %._crit_edge, label %.lr.ph, !llvm.loop !9

._crit_edge:                                      ; preds = %.lr.ph, %3
  %.08.lcssa = phi i64 [ %0, %3 ], [ %10, %.lr.ph ]
  %.07.lcssa = phi ptr [ %1, %3 ], [ %12, %.lr.ph ]
  %.0.lcssa = phi i64 [ %2, %3 ], [ %11, %.lr.ph ]
  %13 = tail call noundef i64 @_ZN4absl13hash_internal15MixingHashState21CombineContiguousImplEmPKhmSt17integral_constantIiLi8EE(i64 noundef %.08.lcssa, ptr noundef %.07.lcssa, i64 noundef %.0.lcssa)
  ret i64 %13
}